; Function Attrs: mustprogress uwtable
define internal fastcc void @_ZN2cv7optflow12_GLOBAL__N_110applyCLAHEERNS_4UMatEf(ptr noundef nonnull align 8 dereferenceable(80) %0, float noundef %1) unnamed_addr #3 personality ptr @__gxx_personality_v0 {
  %3 = alloca %"struct.cv::Ptr.21", align 8
  %4 = alloca %"class.cv::_InputArray", align 8
  %5 = alloca %"class.cv::_OutputArray", align 8
  call void @_ZN2cv11createCLAHEEdNS_5Size_IiEE(ptr dead_on_unwind nonnull writable sret(%"struct.cv::Ptr.21") align 8 %3, double noundef 4.000000e+01, i64 34359738376)
  %6 = load ptr, ptr %3, align 8
  %7 = fpext float %1 to double
  %8 = load ptr, ptr %6, align 8
  %9 = getelementptr inbounds i8, ptr %8, i64 72
  %10 = load ptr, ptr %9, align 8
  invoke void %10(ptr noundef nonnull align 8 dereferenceable(8) %6, double noundef %7)
          to label %11 unwind label %58

11:                                               ; preds = %2
  %12 = load ptr, ptr %3, align 8
  %13 = getelementptr inbounds i8, ptr %4, i64 16
  store i32 0, ptr %13, align 8
  %14 = getelementptr inbounds i8, ptr %4, i64 20
  store i32 0, ptr %14, align 4
  store i32 17432576, ptr %4, align 8
  %15 = getelementptr inbounds i8, ptr %4, i64 8
  store ptr %0, ptr %15, align 8
  %16 = getelementptr inbounds i8, ptr %5, i64 8
  %17 = getelementptr inbounds i8, ptr %5, i64 16
  store i64 0, ptr %17, align 8
  store i32 34209792, ptr %5, align 8
  store ptr %0, ptr %16, align 8
  %18 = load ptr, ptr %12, align 8
  %19 = getelementptr inbounds i8, ptr %18, i64 64
  %20 = load ptr, ptr %19, align 8
  invoke void %20(ptr noundef nonnull align 8 dereferenceable(8) %12, ptr noundef nonnull align 8 dereferenceable(24) %4, ptr noundef nonnull align 8 dereferenceable(24) %5)
          to label %21 unwind label %60

21:                                               ; preds = %11
  %22 = getelementptr inbounds i8, ptr %3, i64 8
  %23 = load ptr, ptr %22, align 8
  %.not.i.i.i.i = icmp eq ptr %23, null
  br i1 %.not.i.i.i.i, label %_ZN2cv3PtrINS_5CLAHEEED2Ev.exit, label %24

24:                                               ; preds = %21
  %25 = getelementptr inbounds i8, ptr %23, i64 8
  %26 = load atomic i64, ptr %25 acquire, align 8
  %27 = icmp eq i64 %26, 4294967297
  %28 = trunc i64 %26 to i32
  br i1 %27, label %29, label %34

29:                                               ; preds = %24
  store i32 0, ptr %25, align 8
  %30 = getelementptr inbounds i8, ptr %23, i64 12
  store i32 0, ptr %30, align 4
  %31 = load ptr, ptr %23, align 8
  %32 = getelementptr inbounds i8, ptr %31, i64 16
  %33 = load ptr, ptr %32, align 8
  call void %33(ptr noundef nonnull align 8 dereferenceable(16) %23) #22
  br label %_ZNSt16_Sp_counted_baseILN9__gnu_cxx12_Lock_policyE2EE24_M_release_last_use_coldEv.exit.sink.split.i.i.i.i.i

34:                                               ; preds = %24
  %35 = load i8, ptr @__libc_single_threaded, align 1
  %.not.i.i.i.i.i = icmp eq i8 %35, 0
  br i1 %.not.i.i.i.i.i, label %38, label %36

36:                                               ; preds = %34
  %37 = add nsw i32 %28, -1
  store i32 %37, ptr %25, align 4
  br label %40

38:                                               ; preds = %34
  %39 = atomicrmw volatile add ptr %25, i32 -1 acq_rel, align 4
  br label %40

40:                                               ; preds = %38, %36
  %.0.i.i.i.i.i = phi i32 [ %28, %36 ], [ %39, %38 ]
  %41 = icmp eq i32 %.0.i.i.i.i.i, 1
  br i1 %41, label %42, label %_ZN2cv3PtrINS_5CLAHEEED2Ev.exit

42:                                               ; preds = %40
  %43 = load ptr, ptr %23, align 8
  %44 = getelementptr inbounds i8, ptr %43, i64 16
  %45 = load ptr, ptr %44, align 8
  call void %45(ptr noundef nonnull align 8 dereferenceable(16) %23) #22
  %46 = getelementptr inbounds i8, ptr %23, i64 12
  %47 = load i8, ptr @__libc_single_threaded, align 1
  %.not.i.i.i.i.i.i.i = icmp eq i8 %47, 0
  br i1 %.not.i.i.i.i.i.i.i, label %51, label %48

48:                                               ; preds = %42
  %49 = load i32, ptr %46, align 4
  %50 = add nsw i32 %49, -1
  store i32 %50, ptr %46, align 4
  br label %53

51:                                               ; preds = %42
  %52 = atomicrmw volatile add ptr %46, i32 -1 acq_rel, align 4
  br label %53

53:                                               ; preds = %51, %48
  %.0.i.i.i.i.i.i.i = phi i32 [ %49, %48 ], [ %52, %51 ]
  %54 = icmp eq i32 %.0.i.i.i.i.i.i.i, 1
  br i1 %54, label %_ZNSt16_Sp_counted_baseILN9__gnu_cxx12_Lock_policyE2EE24_M_release_last_use_coldEv.exit.sink.split.i.i.i.i.i, label %_ZN2cv3PtrINS_5CLAHEEED2Ev.exit

_ZNSt16_Sp_counted_baseILN9__gnu_cxx12_Lock_policyE2EE24_M_release_last_use_coldEv.exit.sink.split.i.i.i.i.i: ; preds = %53, %29
  %55 = load ptr, ptr %23, align 8
  %56 = getelementptr inbounds i8, ptr %55, i64 24
  %57 = load ptr, ptr %56, align 8
  call void %57(ptr noundef nonnull align 8 dereferenceable(16) %23) #22
  br label %_ZN2cv3PtrINS_5CLAHEEED2Ev.exit

_ZN2cv3PtrINS_5CLAHEEED2Ev.exit:                  ; preds = %21, %40, %53, %_ZNSt16_Sp_counted_baseILN9__gnu_cxx12_Lock_policyE2EE24_M_release_last_use_coldEv.exit.sink.split.i.i.i.i.i
  ret void

58:                                               ; preds = %2
  %59 = landingpad { ptr, i32 }
          cleanup
  br label %62

60:                                               ; preds = %11
  %61 = landingpad { ptr, i32 }
          cleanup
  br label %62

62:                                               ; preds = %60, %58
  %.pn.pn = phi { ptr, i32 } [ %59, %58 ], [ %61, %60 ]
  call void @_ZN2cv3PtrINS_5CLAHEEED2Ev(ptr noundef nonnull align 8 dereferenceable(16) %3) #22
  resume { ptr, i32 } %.pn.pn
}